target datalayout = "e-m:e-p270:32:32-p271:32:32-p272:64:64-i64:64-i128:128-f80:128-n8:16:32:64-S128"
target triple = "x86_64-unknown-linux-gnu"

%"class.v8::IndirectHandleBase" = type { ptr }
%"class.node::HandleWrap" = type { %"class.node::AsyncWrap", i32, %"class.node::ListNode", ptr }
%"class.node::AsyncWrap" = type { %"class.node::BaseObject", i32, i8, double, double }
%"class.node::BaseObject" = type { %"class.node::MemoryRetainer", %"class.v8::Global", ptr, ptr }
%"class.node::MemoryRetainer" = type { ptr }
%"class.v8::Global" = type { %"class.v8::PersistentBase" }
%"class.v8::PersistentBase" = type { %"class.v8::IndirectHandleBase" }
%"class.node::ListNode" = type { ptr, ptr }
%"struct.node::BaseObject::PointerData" = type { i32, i32, i8, i8, ptr }

; Function Attrs: mustprogress nounwind uwtable
define linkonce_odr dso_local noundef zeroext i1 @_ZN4node10HandleWrap7IsAliveEPKS0_(ptr noundef %wrap) #4 comdat align 2 {
entry:
  %wrap.addr = alloca ptr, align 8
  store ptr %wrap, ptr %wrap.addr, align 8
  %0 = load ptr, ptr %wrap.addr, align 8
  %cmp = icmp ne ptr %0, null
  br i1 %cmp, label %land.lhs.true, label %land.end

land.lhs.true:                                    ; preds = %entry
  %1 = load ptr, ptr %wrap.addr, align 8
  %vtable = load ptr, ptr %1, align 8
  %vfn = getelementptr inbounds ptr, ptr %vtable, i64 8
  %2 = load ptr, ptr %vfn, align 8
  %call = call noundef zeroext i1 %2(ptr noundef nonnull align 8 dereferenceable(56) %1)
  br i1 %call, label %land.rhs, label %land.end

land.rhs:                                         ; preds = %land.lhs.true
  %3 = load ptr, ptr %wrap.addr, align 8
  %state_ = getelementptr inbounds %"class.node::HandleWrap", ptr %3, i32 0, i32 1
  %4 = load i32, ptr %state_, align 8
  %cmp1 = icmp ne i32 %4, 2
  br label %land.end

land.end:                                         ; preds = %land.rhs, %land.lhs.true, %entry
  %5 = phi i1 [ false, %land.lhs.true ], [ false, %entry ], [ %cmp1, %land.rhs ]
  ret i1 %5
}

; Function Attrs: mustprogress nounwind uwtable
define linkonce_odr dso_local noundef zeroext i1 @_ZNK4node10BaseObject16has_pointer_dataEv(ptr noundef nonnull align 8 dereferenceable(32) %this) #4 comdat align 2 {
entry:
  %this.addr = alloca ptr, align 8
  store ptr %this, ptr %this.addr, align 8
  %this1 = load ptr, ptr %this.addr, align 8
  %pointer_data_ = getelementptr inbounds %"class.node::BaseObject", ptr %this1, i32 0, i32 3
  %0 = load ptr, ptr %pointer_data_, align 8
  %cmp = icmp ne ptr %0, null
  ret i1 %cmp
}

; Function Attrs: mustprogress nounwind uwtable
define linkonce_odr dso_local noundef ptr @_ZNK4node10HandleWrap9GetHandleEv(ptr noundef nonnull align 8 dereferenceable(88) %this) #4 comdat align 2 {
entry:
  %this.addr = alloca ptr, align 8
  store ptr %this, ptr %this.addr, align 8
  %this1 = load ptr, ptr %this.addr, align 8
  %handle_ = getelementptr inbounds %"class.node::HandleWrap", ptr %this1, i32 0, i32 3
  %0 = load ptr, ptr %handle_, align 8
  ret ptr %0
}

; Function Attrs: mustprogress nounwind uwtable
define linkonce_odr dso_local noundef zeroext i1 @_ZN4node10HandleWrap6HasRefEPKS0_(ptr noundef %wrap) #4 comdat align 2 {
entry:
  %wrap.addr = alloca ptr, align 8
  store ptr %wrap, ptr %wrap.addr, align 8
  %0 = load ptr, ptr %wrap.addr, align 8
  %call = call noundef zeroext i1 @_ZN4node10HandleWrap7IsAliveEPKS0_(ptr noundef %0)
  br i1 %call, label %land.rhs, label %land.end

land.rhs:                                         ; preds = %entry
  %1 = load ptr, ptr %wrap.addr, align 8
  %call1 = call noundef ptr @_ZNK4node10HandleWrap9GetHandleEv(ptr noundef nonnull align 8 dereferenceable(88) %1)
  %call2 = call i32 @uv_has_ref(ptr noundef %call1)
  %tobool = icmp ne i32 %call2, 0
  br label %land.end

land.end:                                         ; preds = %land.rhs, %entry
  %2 = phi i1 [ false, %entry ], [ %tobool, %land.rhs ]
  ret i1 %2
}

; Function Attrs: mustprogress nounwind uwtable
define linkonce_odr dso_local noundef zeroext i1 @_ZNK4node10BaseObject16IsWeakOrDetachedEv(ptr noundef nonnull align 8 dereferenceable(32) %this) #4 comdat align 2 {
entry:
  %this.addr.i8 = alloca ptr, align 8
  %obj.addr.i = alloca ptr, align 8
  %addr.i = alloca ptr, align 8
  %this.addr.i.i = alloca ptr, align 8
  %retval.i = alloca i1, align 1
  %this.addr.i = alloca ptr, align 8
  %retval = alloca i1, align 1
  %this.addr = alloca ptr, align 8
  %pd = alloca ptr, align 8
  store ptr %this, ptr %this.addr, align 8
  %this1 = load ptr, ptr %this.addr, align 8
  %persistent_handle_ = getelementptr inbounds %"class.node::BaseObject", ptr %this1, i32 0, i32 1
  store ptr %persistent_handle_, ptr %this.addr.i, align 8
  %this1.i = load ptr, ptr %this.addr.i, align 8
  store ptr %this1.i, ptr %this.addr.i.i, align 8
  %this1.i.i = load ptr, ptr %this.addr.i.i, align 8
  %0 = load ptr, ptr %this1.i.i, align 8
  %cmp.i.i = icmp eq ptr %0, null
  br i1 %cmp.i.i, label %if.then.i, label %if.end.i

if.then.i:                                        ; preds = %entry
  store i1 false, ptr %retval.i, align 1
  br label %_ZNK2v814PersistentBaseINS_6ObjectEE6IsWeakEv.exit

if.end.i:                                         ; preds = %entry
  store ptr %this1.i, ptr %this.addr.i8, align 8
  %this1.i9 = load ptr, ptr %this.addr.i8, align 8
  %1 = load ptr, ptr %this1.i9, align 8
  store ptr %1, ptr %obj.addr.i, align 8
  %2 = load ptr, ptr %obj.addr.i, align 8
  %add.ptr.i = getelementptr inbounds i8, ptr %2, i64 11
  store ptr %add.ptr.i, ptr %addr.i, align 8
  %3 = load ptr, ptr %addr.i, align 8
  %4 = load i8, ptr %3, align 1
  %conv.i7 = zext i8 %4 to i32
  %and.i = and i32 %conv.i7, 3
  %conv1.i = trunc i32 %and.i to i8
  %conv.i = zext i8 %conv1.i to i32
  %cmp.i = icmp eq i32 %conv.i, 2
  store i1 %cmp.i, ptr %retval.i, align 1
  br label %_ZNK2v814PersistentBaseINS_6ObjectEE6IsWeakEv.exit

_ZNK2v814PersistentBaseINS_6ObjectEE6IsWeakEv.exit: ; preds = %if.end.i, %if.then.i
  %5 = load i1, ptr %retval.i, align 1
  br i1 %5, label %if.then, label %if.end

if.then:                                          ; preds = %_ZNK2v814PersistentBaseINS_6ObjectEE6IsWeakEv.exit
  store i1 true, ptr %retval, align 1
  br label %return

if.end:                                           ; preds = %_ZNK2v814PersistentBaseINS_6ObjectEE6IsWeakEv.exit
  %call2 = call noundef zeroext i1 @_ZNK4node10BaseObject16has_pointer_dataEv(ptr noundef nonnull align 8 dereferenceable(32) %this1)
  br i1 %call2, label %if.end4, label %if.then3

if.then3:                                         ; preds = %if.end
  store i1 false, ptr %retval, align 1
  br label %return

if.end4:                                          ; preds = %if.end
  %call5 = call noundef ptr @_ZN4node10BaseObject12pointer_dataEv(ptr noundef nonnull align 8 dereferenceable(32) %this1)
  store ptr %call5, ptr %pd, align 8
  %6 = load ptr, ptr %pd, align 8
  %wants_weak_jsobj = getelementptr inbounds %"struct.node::BaseObject::PointerData", ptr %6, i32 0, i32 2
  %7 = load i8, ptr %wants_weak_jsobj, align 8
  %tobool = trunc i8 %7 to i1
  br i1 %tobool, label %lor.end, label %lor.rhs

lor.rhs:                                          ; preds = %if.end4
  %8 = load ptr, ptr %pd, align 8
  %is_detached = getelementptr inbounds %"struct.node::BaseObject::PointerData", ptr %8, i32 0, i32 3
  %9 = load i8, ptr %is_detached, align 1
  %tobool6 = trunc i8 %9 to i1
  br label %lor.end

lor.end:                                          ; preds = %lor.rhs, %if.end4
  %10 = phi i1 [ true, %if.end4 ], [ %tobool6, %lor.rhs ]
  store i1 %10, ptr %retval, align 1
  br label %return

return:                                           ; preds = %lor.end, %if.then3, %if.then
  %11 = load i1, ptr %retval, align 1
  ret i1 %11
}

; Function Attrs: mustprogress nounwind uwtable
define dso_local noundef zeroext i1 @_ZNK4node10HandleWrap33IsNotIndicativeOfMemoryLeakAtExitEv(ptr noundef nonnull align 8 dereferenceable(88) %this) unnamed_addr #4 align 2 {
entry:
  %this.addr = alloca ptr, align 8
  store ptr %this, ptr %this.addr, align 8
  %this1 = load ptr, ptr %this.addr, align 8
  %call = call noundef zeroext i1 @_ZNK4node10BaseObject16IsWeakOrDetachedEv(ptr noundef nonnull align 8 dereferenceable(32) %this1)
  br i1 %call, label %lor.end, label %lor.lhs.false

lor.lhs.false:                                    ; preds = %entry
  %call2 = call noundef zeroext i1 @_ZN4node10HandleWrap6HasRefEPKS0_(ptr noundef %this1)
  br i1 %call2, label %lor.rhs, label %lor.end

lor.rhs:                                          ; preds = %lor.lhs.false
  %call3 = call noundef ptr @_ZNK4node10HandleWrap9GetHandleEv(ptr noundef nonnull align 8 dereferenceable(88) %this1)
  %call4 = call i32 @uv_is_active(ptr noundef %call3)
  %tobool = icmp ne i32 %call4, 0
  %lnot = xor i1 %tobool, true
  br label %lor.end

lor.end:                                          ; preds = %lor.rhs, %lor.lhs.false, %entry
  %0 = phi i1 [ true, %lor.lhs.false ], [ true, %entry ], [ %lnot, %lor.rhs ]
  ret i1 %0
}