; Function Attrs: mustprogress nounwind uwtable
define dso_local noundef zeroext i1 @_ZNK4node10HandleWrap33IsNotIndicativeOfMemoryLeakAtExitEv(ptr noundef nonnull align 8 dereferenceable(88) %this) unnamed_addr #3 align 2 {
entry:
  %persistent_handle_.i = getelementptr inbounds i8, ptr %this, i64 8
  %0 = load ptr, ptr %persistent_handle_.i, align 8
  %cmp.i.i.i = icmp eq ptr %0, null
  br i1 %cmp.i.i.i, label %if.end.i, label %if.end.i.i

if.end.i.i:                                       ; preds = %entry
  %add.ptr.i.i = getelementptr inbounds i8, ptr %0, i64 11
  %1 = load i8, ptr %add.ptr.i.i, align 1
  %2 = and i8 %1, 3
  %cmp.i.i = icmp eq i8 %2, 2
  br i1 %cmp.i.i, label %lor.end, label %if.end.i

if.end.i:                                         ; preds = %if.end.i.i, %entry
  %pointer_data_.i.i = getelementptr inbounds i8, ptr %this, i64 24
  %3 = load ptr, ptr %pointer_data_.i.i, align 8
  %cmp.i2.not.i = icmp eq ptr %3, null
  br i1 %cmp.i2.not.i, label %lor.lhs.false, label %if.end4.i

if.end4.i:                                        ; preds = %if.end.i
  %call5.i = tail call noundef ptr @_ZN4node10BaseObject12pointer_dataEv(ptr noundef nonnull align 8 dereferenceable(32) %this) #14
  %wants_weak_jsobj.i = getelementptr inbounds i8, ptr %call5.i, i64 8
  %4 = load i8, ptr %wants_weak_jsobj.i, align 8
  %5 = and i8 %4, 1
  %tobool.not.i = icmp eq i8 %5, 0
  br i1 %tobool.not.i, label %_ZNK4node10BaseObject16IsWeakOrDetachedEv.exit, label %lor.end

_ZNK4node10BaseObject16IsWeakOrDetachedEv.exit:   ; preds = %if.end4.i
  %is_detached.i = getelementptr inbounds i8, ptr %call5.i, i64 9
  %6 = load i8, ptr %is_detached.i, align 1
  %7 = and i8 %6, 1
  %tobool6.i.not = icmp eq i8 %7, 0
  br i1 %tobool6.i.not, label %lor.lhs.false, label %lor.end

lor.lhs.false:                                    ; preds = %if.end.i, %_ZNK4node10BaseObject16IsWeakOrDetachedEv.exit
  %vtable.i.i = load ptr, ptr %this, align 8
  %vfn.i.i = getelementptr inbounds i8, ptr %vtable.i.i, i64 64
  %8 = load ptr, ptr %vfn.i.i, align 8
  %call.i.i = tail call noundef zeroext i1 %8(ptr noundef nonnull align 8 dereferenceable(56) %this) #14
  %state_.i.i = getelementptr inbounds i8, ptr %this, i64 56
  %9 = load i32, ptr %state_.i.i, align 8
  %cmp1.i.not.i = icmp ne i32 %9, 2
  %or.cond.not = select i1 %call.i.i, i1 %cmp1.i.not.i, i1 false
  br i1 %or.cond.not, label %_ZN4node10HandleWrap6HasRefEPKS0_.exit, label %lor.end

_ZN4node10HandleWrap6HasRefEPKS0_.exit:           ; preds = %lor.lhs.false
  %handle_.i.i = getelementptr inbounds i8, ptr %this, i64 80
  %10 = load ptr, ptr %handle_.i.i, align 8
  %call2.i = tail call i32 @uv_has_ref(ptr noundef %10) #14
  %tobool.i.not = icmp eq i32 %call2.i, 0
  br i1 %tobool.i.not, label %lor.end, label %lor.rhs

lor.rhs:                                          ; preds = %_ZN4node10HandleWrap6HasRefEPKS0_.exit
  %11 = load ptr, ptr %handle_.i.i, align 8
  %call4 = tail call i32 @uv_is_active(ptr noundef %11) #14
  %tobool.not = icmp eq i32 %call4, 0
  br label %lor.end

lor.end:                                          ; preds = %lor.lhs.false, %if.end4.i, %if.end.i.i, %lor.rhs, %_ZN4node10HandleWrap6HasRefEPKS0_.exit, %_ZNK4node10BaseObject16IsWeakOrDetachedEv.exit
  %12 = phi i1 [ true, %_ZN4node10HandleWrap6HasRefEPKS0_.exit ], [ true, %_ZNK4node10BaseObject16IsWeakOrDetachedEv.exit ], [ %tobool.not, %lor.rhs ], [ true, %if.end.i.i ], [ true, %if.end4.i ], [ true, %lor.lhs.false ]
  ret i1 %12
}